; ModuleID = '39/1386.c'
source_filename = "39/1386.c"
target datalayout = "e-m:e-p270:32:32-p271:32:32-p272:64:64-i64:64-f80:128-n8:16:32:64-S128"
target triple = "x86_64-pc-linux-gnu"

%struct.person = type { [20 x i8], i32, i32, i8, i8, i32 }

@.str = private unnamed_addr constant [3 x i8] c"%d\00", align 1
@.str.1 = private unnamed_addr constant [18 x i8] c"%s %d %d %c %c %d\00", align 1
@.str.2 = private unnamed_addr constant [12 x i8] c"%s\0A%d\0A%.0lf\00", align 1

; Function Attrs: noinline nounwind uwtable
define dso_local i32 @jiang(%struct.person* byval(%struct.person) align 8 %0) #0 {
  %2 = alloca i32, align 4
  store i32 0, i32* %2, align 4
  %3 = getelementptr inbounds %struct.person, %struct.person* %0, i32 0, i32 1
  %4 = load i32, i32* %3, align 4
  %5 = icmp sgt i32 %4, 80
  br i1 %5, label %6, label %13

6:                                                ; preds = %1
  %7 = getelementptr inbounds %struct.person, %struct.person* %0, i32 0, i32 5
  %8 = load i32, i32* %7, align 8
  %9 = icmp sgt i32 %8, 0
  br i1 %9, label %10, label %13

10:                                               ; preds = %6
  %11 = load i32, i32* %2, align 4
  %12 = add nsw i32 %11, 8000
  store i32 %12, i32* %2, align 4
  br label %13

13:                                               ; preds = %10, %6, %1
  %14 = getelementptr inbounds %struct.person, %struct.person* %0, i32 0, i32 1
  %15 = load i32, i32* %14, align 4
  %16 = icmp sgt i32 %15, 85
  br i1 %16, label %17, label %24

17:                                               ; preds = %13
  %18 = getelementptr inbounds %struct.person, %struct.person* %0, i32 0, i32 2
  %19 = load i32, i32* %18, align 8
  %20 = icmp sgt i32 %19, 80
  br i1 %20, label %21, label %24

21:                                               ; preds = %17
  %22 = load i32, i32* %2, align 4
  %23 = add nsw i32 %22, 4000
  store i32 %23, i32* %2, align 4
  br label %24

24:                                               ; preds = %21, %17, %13
  %25 = getelementptr inbounds %struct.person, %struct.person* %0, i32 0, i32 1
  %26 = load i32, i32* %25, align 4
  %27 = icmp sgt i32 %26, 90
  br i1 %27, label %28, label %31

28:                                               ; preds = %24
  %29 = load i32, i32* %2, align 4
  %30 = add nsw i32 %29, 2000
  store i32 %30, i32* %2, align 4
  br label %31

31:                                               ; preds = %28, %24
  %32 = getelementptr inbounds %struct.person, %struct.person* %0, i32 0, i32 1
  %33 = load i32, i32* %32, align 4
  %34 = icmp sgt i32 %33, 85
  br i1 %34, label %35, label %43

35:                                               ; preds = %31
  %36 = getelementptr inbounds %struct.person, %struct.person* %0, i32 0, i32 4
  %37 = load i8, i8* %36, align 1
  %38 = sext i8 %37 to i32
  %39 = icmp eq i32 %38, 89
  br i1 %39, label %40, label %43

40:                                               ; preds = %35
  %41 = load i32, i32* %2, align 4
  %42 = add nsw i32 %41, 1000
  store i32 %42, i32* %2, align 4
  br label %43

43:                                               ; preds = %40, %35, %31
  %44 = getelementptr inbounds %struct.person, %struct.person* %0, i32 0, i32 2
  %45 = load i32, i32* %44, align 8
  %46 = icmp sgt i32 %45, 80
  br i1 %46, label %47, label %55

47:                                               ; preds = %43
  %48 = getelementptr inbounds %struct.person, %struct.person* %0, i32 0, i32 3
  %49 = load i8, i8* %48, align 4
  %50 = sext i8 %49 to i32
  %51 = icmp eq i32 %50, 89
  br i1 %51, label %52, label %55

52:                                               ; preds = %47
  %53 = load i32, i32* %2, align 4
  %54 = add nsw i32 %53, 850
  store i32 %54, i32* %2, align 4
  br label %55

55:                                               ; preds = %52, %47, %43
  %56 = load i32, i32* %2, align 4
  ret i32 %56
}

; Function Attrs: noinline nounwind uwtable
define dso_local void @main() #0 {
  %1 = alloca i32, align 4
  %2 = alloca i32, align 4
  %3 = alloca i32, align 4
  %4 = alloca i32, align 4
  %5 = alloca double, align 8
  %6 = alloca [100 x i32], align 16
  %7 = alloca [100 x %struct.person], align 16
  %8 = alloca %struct.person, align 8
  store double 0.000000e+00, double* %5, align 8
  %9 = call i32 (i8*, ...) @__isoc99_scanf(i8* getelementptr inbounds ([3 x i8], [3 x i8]* @.str, i64 0, i64 0), i32* %1)
  store i32 0, i32* %2, align 4
  br label %10

10:                                               ; preds = %58, %0
  %11 = load i32, i32* %2, align 4
  %12 = load i32, i32* %1, align 4
  %13 = sub nsw i32 %12, 1
  %14 = icmp sle i32 %11, %13
  br i1 %14, label %15, label %61

15:                                               ; preds = %10
  %16 = load i32, i32* %2, align 4
  %17 = sext i32 %16 to i64
  %18 = getelementptr inbounds [100 x %struct.person], [100 x %struct.person]* %7, i64 0, i64 %17
  %19 = getelementptr inbounds %struct.person, %struct.person* %18, i32 0, i32 0
  %20 = getelementptr inbounds [20 x i8], [20 x i8]* %19, i64 0, i64 0
  %21 = load i32, i32* %2, align 4
  %22 = sext i32 %21 to i64
  %23 = getelementptr inbounds [100 x %struct.person], [100 x %struct.person]* %7, i64 0, i64 %22
  %24 = getelementptr inbounds %struct.person, %struct.person* %23, i32 0, i32 1
  %25 = load i32, i32* %2, align 4
  %26 = sext i32 %25 to i64
  %27 = getelementptr inbounds [100 x %struct.person], [100 x %struct.person]* %7, i64 0, i64 %26
  %28 = getelementptr inbounds %struct.person, %struct.person* %27, i32 0, i32 2
  %29 = load i32, i32* %2, align 4
  %30 = sext i32 %29 to i64
  %31 = getelementptr inbounds [100 x %struct.person], [100 x %struct.person]* %7, i64 0, i64 %30
  %32 = getelementptr inbounds %struct.person, %struct.person* %31, i32 0, i32 3
  %33 = load i32, i32* %2, align 4
  %34 = sext i32 %33 to i64
  %35 = getelementptr inbounds [100 x %struct.person], [100 x %struct.person]* %7, i64 0, i64 %34
  %36 = getelementptr inbounds %struct.person, %struct.person* %35, i32 0, i32 4
  %37 = load i32, i32* %2, align 4
  %38 = sext i32 %37 to i64
  %39 = getelementptr inbounds [100 x %struct.person], [100 x %struct.person]* %7, i64 0, i64 %38
  %40 = getelementptr inbounds %struct.person, %struct.person* %39, i32 0, i32 5
  %41 = call i32 (i8*, ...) @__isoc99_scanf(i8* getelementptr inbounds ([18 x i8], [18 x i8]* @.str.1, i64 0, i64 0), i8* %20, i32* %24, i32* %28, i8* %32, i8* %36, i32* %40)
  %42 = load i32, i32* %2, align 4
  %43 = sext i32 %42 to i64
  %44 = getelementptr inbounds [100 x %struct.person], [100 x %struct.person]* %7, i64 0, i64 %43
  %45 = bitcast %struct.person* %8 to i8*
  %46 = bitcast %struct.person* %44 to i8*
  call void @llvm.memcpy.p0i8.p0i8.i64(i8* align 8 %45, i8* align 4 %46, i64 36, i1 false)
  %47 = call i32 @jiang(%struct.person* byval(%struct.person) align 8 %8)
  %48 = load i32, i32* %2, align 4
  %49 = sext i32 %48 to i64
  %50 = getelementptr inbounds [100 x i32], [100 x i32]* %6, i64 0, i64 %49
  store i32 %47, i32* %50, align 4
  %51 = load double, double* %5, align 8
  %52 = load i32, i32* %2, align 4
  %53 = sext i32 %52 to i64
  %54 = getelementptr inbounds [100 x i32], [100 x i32]* %6, i64 0, i64 %53
  %55 = load i32, i32* %54, align 4
  %56 = sitofp i32 %55 to double
  %57 = fadd double %51, %56
  store double %57, double* %5, align 8
  br label %58

58:                                               ; preds = %15
  %59 = load i32, i32* %2, align 4
  %60 = add nsw i32 %59, 1
  store i32 %60, i32* %2, align 4
  br label %10

61:                                               ; preds = %10
  store i32 0, i32* %2, align 4
  br label %62

62:                                               ; preds = %104, %61
  %63 = load i32, i32* %2, align 4
  %64 = load i32, i32* %1, align 4
  %65 = sub nsw i32 %64, 1
  %66 = icmp sle i32 %63, %65
  br i1 %66, label %67, label %107

67:                                               ; preds = %62
  store i32 0, i32* %4, align 4
  store i32 0, i32* %3, align 4
  br label %68

68:                                               ; preds = %85, %67
  %69 = load i32, i32* %3, align 4
  %70 = load i32, i32* %1, align 4
  %71 = sub nsw i32 %70, 1
  %72 = icmp sle i32 %69, %71
  br i1 %72, label %73, label %88

73:                                               ; preds = %68
  %74 = load i32, i32* %3, align 4
  %75 = sext i32 %74 to i64
  %76 = getelementptr inbounds [100 x i32], [100 x i32]* %6, i64 0, i64 %75
  %77 = load i32, i32* %76, align 4
  %78 = load i32, i32* %2, align 4
  %79 = sext i32 %78 to i64
  %80 = getelementptr inbounds [100 x i32], [100 x i32]* %6, i64 0, i64 %79
  %81 = load i32, i32* %80, align 4
  %82 = icmp sgt i32 %77, %81
  br i1 %82, label %83, label %84

83:                                               ; preds = %73
  store i32 1, i32* %4, align 4
  br label %84

84:                                               ; preds = %83, %73
  br label %85

85:                                               ; preds = %84
  %86 = load i32, i32* %3, align 4
  %87 = add nsw i32 %86, 1
  store i32 %87, i32* %3, align 4
  br label %68

88:                                               ; preds = %68
  %89 = load i32, i32* %4, align 4
  %90 = icmp eq i32 %89, 0
  br i1 %90, label %91, label %103

91:                                               ; preds = %88
  %92 = load i32, i32* %2, align 4
  %93 = sext i32 %92 to i64
  %94 = getelementptr inbounds [100 x %struct.person], [100 x %struct.person]* %7, i64 0, i64 %93
  %95 = getelementptr inbounds %struct.person, %struct.person* %94, i32 0, i32 0
  %96 = getelementptr inbounds [20 x i8], [20 x i8]* %95, i64 0, i64 0
  %97 = load i32, i32* %2, align 4
  %98 = sext i32 %97 to i64
  %99 = getelementptr inbounds [100 x i32], [100 x i32]* %6, i64 0, i64 %98
  %100 = load i32, i32* %99, align 4
  %101 = load double, double* %5, align 8
  %102 = call i32 (i8*, ...) @printf(i8* getelementptr inbounds ([12 x i8], [12 x i8]* @.str.2, i64 0, i64 0), i8* %96, i32 %100, double %101)
  br label %107

103:                                              ; preds = %88
  br label %104

104:                                              ; preds = %103
  %105 = load i32, i32* %2, align 4
  %106 = add nsw i32 %105, 1
  store i32 %106, i32* %2, align 4
  br label %62

107:                                              ; preds = %91, %62
  ret void
}

declare dso_local i32 @__isoc99_scanf(i8*, ...) #1

; Function Attrs: argmemonly nounwind willreturn
declare void @llvm.memcpy.p0i8.p0i8.i64(i8* noalias nocapture writeonly, i8* noalias nocapture readonly, i64, i1 immarg) #2

declare dso_local i32 @printf(i8*, ...) #1


!llvm.module.flags = !{!0}
!llvm.ident = !{!1}

!0 = !{i32 1, !"wchar_size", i32 4}
!1 = !{!"clang version 10.0.0-4ubuntu1 "}
